; Function Attrs: mustprogress uwtable
define void @_ZN3vcg9Trackball7AnimateEj(ptr noundef nonnull align 8 dereferenceable(597) %0, i32 noundef %1) local_unnamed_addr #6 align 2 {
  %3 = getelementptr inbounds i8, ptr %0, i64 596
  %4 = load i8, ptr %3, align 4
  %5 = and i8 %4, 1
  %.not = icmp eq i8 %5, 0
  br i1 %.not, label %6, label %16

6:                                                ; preds = %2
  %7 = icmp eq i32 %1, 0
  br i1 %7, label %8, label %12

8:                                                ; preds = %6
  %9 = tail call i64 @clock() #27
  %10 = sdiv i64 %9, 1000
  %11 = trunc i64 %10 to i32
  br label %12

12:                                               ; preds = %8, %6
  %.05 = phi i32 [ %11, %8 ], [ %1, %6 ]
  %13 = getelementptr inbounds i8, ptr %0, i64 544
  %14 = load i32, ptr %13, align 8
  %15 = sub i32 %.05, %14
  store i32 %.05, ptr %13, align 8
  br label %16

16:                                               ; preds = %2, %12
  %.0 = phi i32 [ %15, %12 ], [ %1, %2 ]
  %17 = getelementptr inbounds i8, ptr %0, i64 344
  %18 = load ptr, ptr %17, align 8
  %19 = icmp eq ptr %18, null
  br i1 %19, label %24, label %20

20:                                               ; preds = %16
  %21 = load ptr, ptr %18, align 8
  %22 = getelementptr inbounds i8, ptr %21, i64 88
  %23 = load ptr, ptr %22, align 8
  tail call void %23(ptr noundef nonnull align 8 dereferenceable(8) %18, i32 noundef %.0, ptr noundef nonnull %0)
  br label %24

24:                                               ; preds = %16, %20
  ret void
}